; Function Attrs: mustprogress nounwind uwtable
define dso_local void @_ZNSt3__112strstreambufC2El(ptr noundef nonnull align 8 dereferenceable(96) initializes((0, 8)) %0, i64 noundef %1) unnamed_addr #0 align 2 {
  store ptr getelementptr inbounds nuw inrange(-16, 112) (i8, ptr @_ZTVNSt3__115basic_streambufIcNS_11char_traitsIcEEEE, i64 16), ptr %0, align 8, !tbaa !4
  %3 = getelementptr inbounds nuw i8, ptr %0, i64 8
  tail call void @_ZNSt3__16localeC1Ev(ptr noundef nonnull align 8 dereferenceable(8) %3) #18
  %4 = getelementptr inbounds nuw i8, ptr %0, i64 16
  tail call void @llvm.memset.p0.i64(ptr noundef nonnull align 8 dereferenceable(48) %4, i8 0, i64 48, i1 false)
  store ptr getelementptr inbounds nuw inrange(-16, 112) (i8, ptr @_ZTVNSt3__112strstreambufE, i64 16), ptr %0, align 8, !tbaa !4
  %5 = getelementptr inbounds nuw i8, ptr %0, i64 64
  store i32 4, ptr %5, align 8, !tbaa !7
  %6 = getelementptr inbounds nuw i8, ptr %0, i64 72
  store i64 %1, ptr %6, align 8, !tbaa !17
  %7 = getelementptr inbounds nuw i8, ptr %0, i64 80
  tail call void @llvm.memset.p0.i64(ptr noundef nonnull align 8 dereferenceable(16) %7, i8 0, i64 16, i1 false)
  ret void
}